target datalayout = "e-m:e-p270:32:32-p271:32:32-p272:64:64-i64:64-i128:128-f80:128-n8:16:32:64-S128"
target triple = "x86_64-pc-linux-gnu"

%struct.AVFilterContext = type { ptr, ptr, ptr, ptr, ptr, i32, ptr, ptr, i32, ptr, ptr, i32, i32, ptr, ptr, ptr, ptr, i32, ptr, i32, i32 }
%struct.NLMeansContext = type { ptr, i32, i32, i32, double, double, i32, i32, i32, i32, i32, i32, i32, i32, ptr, ptr, i32, i32, i64, ptr, ptr, i32, ptr, i32, %struct.NLMeansDSPContext }
%struct.NLMeansDSPContext = type { ptr, ptr }
%struct.AVFilterLink = type { ptr, ptr, ptr, ptr, i32, i32, i32, i32, %struct.AVRational, i32, i32, i32, %struct.AVChannelLayout, %struct.AVRational, ptr, i32, %struct.AVFilterFormatsConfig, %struct.AVFilterFormatsConfig }
%struct.AVChannelLayout = type { i32, i32, %union.anon.1, ptr }
%union.anon.1 = type { i64 }
%struct.AVRational = type { i32, i32 }
%struct.AVFilterFormatsConfig = type { ptr, ptr, ptr, ptr, ptr }
%struct.AVPixFmtDescriptor = type { ptr, i8, i8, i8, i64, [4 x %struct.AVComponentDescriptor], ptr }
%struct.AVComponentDescriptor = type { i32, i32, i32, i32, i32 }

; Function Attrs: nounwind uwtable
define internal i32 @config_input(ptr noundef %0) #1 {
  %2 = alloca i32, align 4
  %3 = alloca ptr, align 8
  %4 = alloca ptr, align 8
  %5 = alloca ptr, align 8
  %6 = alloca ptr, align 8
  %7 = alloca i32, align 4
  %8 = alloca i32, align 4
  store ptr %0, ptr %3, align 8, !tbaa !48
  call void @llvm.lifetime.start.p0(i64 8, ptr %4) #10
  %9 = load ptr, ptr %3, align 8, !tbaa !48
  %10 = getelementptr inbounds nuw %struct.AVFilterLink, ptr %9, i32 0, i32 2
  %11 = load ptr, ptr %10, align 8, !tbaa !52
  store ptr %11, ptr %4, align 8, !tbaa !4
  call void @llvm.lifetime.start.p0(i64 8, ptr %5) #10
  %12 = load ptr, ptr %4, align 8, !tbaa !4
  %13 = getelementptr inbounds nuw %struct.AVFilterContext, ptr %12, i32 0, i32 9
  %14 = load ptr, ptr %13, align 8, !tbaa !9
  store ptr %14, ptr %5, align 8, !tbaa !22
  call void @llvm.lifetime.start.p0(i64 8, ptr %6) #10
  %15 = load ptr, ptr %3, align 8, !tbaa !48
  %16 = getelementptr inbounds nuw %struct.AVFilterLink, ptr %15, i32 0, i32 5
  %17 = load i32, ptr %16, align 4, !tbaa !68
  %18 = call ptr @av_pix_fmt_desc_get(i32 noundef %17)
  store ptr %18, ptr %6, align 8, !tbaa !69
  call void @llvm.lifetime.start.p0(i64 4, ptr %7) #10
  %19 = load ptr, ptr %5, align 8, !tbaa !22
  %20 = getelementptr inbounds nuw %struct.NLMeansContext, ptr %19, i32 0, i32 11
  %21 = load i32, ptr %20, align 4, !tbaa !44
  %22 = load ptr, ptr %5, align 8, !tbaa !22
  %23 = getelementptr inbounds nuw %struct.NLMeansContext, ptr %22, i32 0, i32 13
  %24 = load i32, ptr %23, align 4, !tbaa !45
  %25 = icmp sgt i32 %21, %24
  br i1 %25, label %26, label %30

26:                                               ; preds = %1
  %27 = load ptr, ptr %5, align 8, !tbaa !22
  %28 = getelementptr inbounds nuw %struct.NLMeansContext, ptr %27, i32 0, i32 11
  %29 = load i32, ptr %28, align 4, !tbaa !44
  br label %34

30:                                               ; preds = %1
  %31 = load ptr, ptr %5, align 8, !tbaa !22
  %32 = getelementptr inbounds nuw %struct.NLMeansContext, ptr %31, i32 0, i32 13
  %33 = load i32, ptr %32, align 4, !tbaa !45
  br label %34

34:                                               ; preds = %30, %26
  %35 = phi i32 [ %29, %26 ], [ %33, %30 ]
  %36 = load ptr, ptr %5, align 8, !tbaa !22
  %37 = getelementptr inbounds nuw %struct.NLMeansContext, ptr %36, i32 0, i32 7
  %38 = load i32, ptr %37, align 4, !tbaa !46
  %39 = load ptr, ptr %5, align 8, !tbaa !22
  %40 = getelementptr inbounds nuw %struct.NLMeansContext, ptr %39, i32 0, i32 9
  %41 = load i32, ptr %40, align 4, !tbaa !47
  %42 = icmp sgt i32 %38, %41
  br i1 %42, label %43, label %47

43:                                               ; preds = %34
  %44 = load ptr, ptr %5, align 8, !tbaa !22
  %45 = getelementptr inbounds nuw %struct.NLMeansContext, ptr %44, i32 0, i32 7
  %46 = load i32, ptr %45, align 4, !tbaa !46
  br label %51

47:                                               ; preds = %34
  %48 = load ptr, ptr %5, align 8, !tbaa !22
  %49 = getelementptr inbounds nuw %struct.NLMeansContext, ptr %48, i32 0, i32 9
  %50 = load i32, ptr %49, align 4, !tbaa !47
  br label %51

51:                                               ; preds = %47, %43
  %52 = phi i32 [ %46, %43 ], [ %50, %47 ]
  %53 = add nsw i32 %35, %52
  store i32 %53, ptr %7, align 4, !tbaa !35
  %54 = load ptr, ptr %6, align 8, !tbaa !69
  %55 = getelementptr inbounds nuw %struct.AVPixFmtDescriptor, ptr %54, i32 0, i32 2
  %56 = load i8, ptr %55, align 1, !tbaa !71
  %57 = call i1 @llvm.is.constant.i8(i8 %56)
  br i1 %57, label %69, label %58

58:                                               ; preds = %51
  %59 = load ptr, ptr %3, align 8, !tbaa !48
  %60 = getelementptr inbounds nuw %struct.AVFilterLink, ptr %59, i32 0, i32 6
  %61 = load i32, ptr %60, align 8, !tbaa !61
  %62 = sub nsw i32 0, %61
  %63 = load ptr, ptr %6, align 8, !tbaa !69
  %64 = getelementptr inbounds nuw %struct.AVPixFmtDescriptor, ptr %63, i32 0, i32 2
  %65 = load i8, ptr %64, align 1, !tbaa !71
  %66 = zext i8 %65 to i32
  %67 = ashr i32 %62, %66
  %68 = sub nsw i32 0, %67
  br label %85

69:                                               ; preds = %51
  %70 = load ptr, ptr %3, align 8, !tbaa !48
  %71 = getelementptr inbounds nuw %struct.AVFilterLink, ptr %70, i32 0, i32 6
  %72 = load i32, ptr %71, align 8, !tbaa !61
  %73 = load ptr, ptr %6, align 8, !tbaa !69
  %74 = getelementptr inbounds nuw %struct.AVPixFmtDescriptor, ptr %73, i32 0, i32 2
  %75 = load i8, ptr %74, align 1, !tbaa !71
  %76 = zext i8 %75 to i32
  %77 = shl i32 1, %76
  %78 = add nsw i32 %72, %77
  %79 = sub nsw i32 %78, 1
  %80 = load ptr, ptr %6, align 8, !tbaa !69
  %81 = getelementptr inbounds nuw %struct.AVPixFmtDescriptor, ptr %80, i32 0, i32 2
  %82 = load i8, ptr %81, align 1, !tbaa !71
  %83 = zext i8 %82 to i32
  %84 = ashr i32 %79, %83
  br label %85

85:                                               ; preds = %69, %58
  %86 = phi i32 [ %68, %58 ], [ %84, %69 ]
  %87 = load ptr, ptr %5, align 8, !tbaa !22
  %88 = getelementptr inbounds nuw %struct.NLMeansContext, ptr %87, i32 0, i32 2
  store i32 %86, ptr %88, align 4, !tbaa !64
  %89 = load ptr, ptr %6, align 8, !tbaa !69
  %90 = getelementptr inbounds nuw %struct.AVPixFmtDescriptor, ptr %89, i32 0, i32 3
  %91 = load i8, ptr %90, align 2, !tbaa !73
  %92 = call i1 @llvm.is.constant.i8(i8 %91)
  br i1 %92, label %104, label %93

93:                                               ; preds = %85
  %94 = load ptr, ptr %3, align 8, !tbaa !48
  %95 = getelementptr inbounds nuw %struct.AVFilterLink, ptr %94, i32 0, i32 7
  %96 = load i32, ptr %95, align 4, !tbaa !62
  %97 = sub nsw i32 0, %96
  %98 = load ptr, ptr %6, align 8, !tbaa !69
  %99 = getelementptr inbounds nuw %struct.AVPixFmtDescriptor, ptr %98, i32 0, i32 3
  %100 = load i8, ptr %99, align 2, !tbaa !73
  %101 = zext i8 %100 to i32
  %102 = ashr i32 %97, %101
  %103 = sub nsw i32 0, %102
  br label %120

104:                                              ; preds = %85
  %105 = load ptr, ptr %3, align 8, !tbaa !48
  %106 = getelementptr inbounds nuw %struct.AVFilterLink, ptr %105, i32 0, i32 7
  %107 = load i32, ptr %106, align 4, !tbaa !62
  %108 = load ptr, ptr %6, align 8, !tbaa !69
  %109 = getelementptr inbounds nuw %struct.AVPixFmtDescriptor, ptr %108, i32 0, i32 3
  %110 = load i8, ptr %109, align 2, !tbaa !73
  %111 = zext i8 %110 to i32
  %112 = shl i32 1, %111
  %113 = add nsw i32 %107, %112
  %114 = sub nsw i32 %113, 1
  %115 = load ptr, ptr %6, align 8, !tbaa !69
  %116 = getelementptr inbounds nuw %struct.AVPixFmtDescriptor, ptr %115, i32 0, i32 3
  %117 = load i8, ptr %116, align 2, !tbaa !73
  %118 = zext i8 %117 to i32
  %119 = ashr i32 %114, %118
  br label %120

120:                                              ; preds = %104, %93
  %121 = phi i32 [ %103, %93 ], [ %119, %104 ]
  %122 = load ptr, ptr %5, align 8, !tbaa !22
  %123 = getelementptr inbounds nuw %struct.NLMeansContext, ptr %122, i32 0, i32 3
  store i32 %121, ptr %123, align 8, !tbaa !65
  %124 = load ptr, ptr %3, align 8, !tbaa !48
  %125 = getelementptr inbounds nuw %struct.AVFilterLink, ptr %124, i32 0, i32 5
  %126 = load i32, ptr %125, align 4, !tbaa !68
  %127 = call i32 @av_pix_fmt_count_planes(i32 noundef %126)
  %128 = load ptr, ptr %5, align 8, !tbaa !22
  %129 = getelementptr inbounds nuw %struct.NLMeansContext, ptr %128, i32 0, i32 1
  store i32 %127, ptr %129, align 8, !tbaa !63
  %130 = load ptr, ptr %3, align 8, !tbaa !48
  %131 = getelementptr inbounds nuw %struct.AVFilterLink, ptr %130, i32 0, i32 6
  %132 = load i32, ptr %131, align 8, !tbaa !61
  %133 = load i32, ptr %7, align 4, !tbaa !35
  %134 = mul nsw i32 %133, 2
  %135 = add nsw i32 %132, %134
  %136 = load ptr, ptr %5, align 8, !tbaa !22
  %137 = getelementptr inbounds nuw %struct.NLMeansContext, ptr %136, i32 0, i32 16
  store i32 %135, ptr %137, align 8, !tbaa !74
  %138 = load ptr, ptr %3, align 8, !tbaa !48
  %139 = getelementptr inbounds nuw %struct.AVFilterLink, ptr %138, i32 0, i32 7
  %140 = load i32, ptr %139, align 4, !tbaa !62
  %141 = load i32, ptr %7, align 4, !tbaa !35
  %142 = mul nsw i32 %141, 2
  %143 = add nsw i32 %140, %142
  %144 = load ptr, ptr %5, align 8, !tbaa !22
  %145 = getelementptr inbounds nuw %struct.NLMeansContext, ptr %144, i32 0, i32 17
  store i32 %143, ptr %145, align 4, !tbaa !75
  %146 = load ptr, ptr %5, align 8, !tbaa !22
  %147 = getelementptr inbounds nuw %struct.NLMeansContext, ptr %146, i32 0, i32 16
  %148 = load i32, ptr %147, align 8, !tbaa !74
  %149 = add nsw i32 %148, 1
  %150 = add nsw i32 %149, 4
  %151 = sub nsw i32 %150, 1
  %152 = and i32 %151, -4
  %153 = sext i32 %152 to i64
  %154 = load ptr, ptr %5, align 8, !tbaa !22
  %155 = getelementptr inbounds nuw %struct.NLMeansContext, ptr %154, i32 0, i32 18
  store i64 %153, ptr %155, align 8, !tbaa !76
  %156 = load ptr, ptr %5, align 8, !tbaa !22
  %157 = getelementptr inbounds nuw %struct.NLMeansContext, ptr %156, i32 0, i32 17
  %158 = load i32, ptr %157, align 4, !tbaa !75
  %159 = add nsw i32 %158, 1
  %160 = sext i32 %159 to i64
  %161 = load ptr, ptr %5, align 8, !tbaa !22
  %162 = getelementptr inbounds nuw %struct.NLMeansContext, ptr %161, i32 0, i32 18
  %163 = load i64, ptr %162, align 8, !tbaa !76
  %164 = mul i64 %163, 4
  %165 = call noalias ptr @av_calloc(i64 noundef %160, i64 noundef %164)
  %166 = load ptr, ptr %5, align 8, !tbaa !22
  %167 = getelementptr inbounds nuw %struct.NLMeansContext, ptr %166, i32 0, i32 14
  store ptr %165, ptr %167, align 8, !tbaa !77
  %168 = load ptr, ptr %5, align 8, !tbaa !22
  %169 = getelementptr inbounds nuw %struct.NLMeansContext, ptr %168, i32 0, i32 14
  %170 = load ptr, ptr %169, align 8, !tbaa !77
  %171 = icmp ne ptr %170, null
  br i1 %171, label %173, label %172

172:                                              ; preds = %120
  store i32 -12, ptr %2, align 4
  store i32 1, ptr %8, align 4
  br label %225

173:                                              ; preds = %120
  %174 = load ptr, ptr %5, align 8, !tbaa !22
  %175 = getelementptr inbounds nuw %struct.NLMeansContext, ptr %174, i32 0, i32 14
  %176 = load ptr, ptr %175, align 8, !tbaa !77
  %177 = load ptr, ptr %5, align 8, !tbaa !22
  %178 = getelementptr inbounds nuw %struct.NLMeansContext, ptr %177, i32 0, i32 18
  %179 = load i64, ptr %178, align 8, !tbaa !76
  %180 = getelementptr inbounds i32, ptr %176, i64 %179
  %181 = getelementptr inbounds i32, ptr %180, i64 1
  %182 = load ptr, ptr %5, align 8, !tbaa !22
  %183 = getelementptr inbounds nuw %struct.NLMeansContext, ptr %182, i32 0, i32 15
  store ptr %181, ptr %183, align 8, !tbaa !78
  %184 = load ptr, ptr %3, align 8, !tbaa !48
  %185 = getelementptr inbounds nuw %struct.AVFilterLink, ptr %184, i32 0, i32 6
  %186 = load i32, ptr %185, align 8, !tbaa !61
  %187 = add nsw i32 %186, 100
  %188 = load ptr, ptr %5, align 8, !tbaa !22
  %189 = getelementptr inbounds nuw %struct.NLMeansContext, ptr %188, i32 0, i32 21
  store i32 %187, ptr %189, align 8, !tbaa !79
  %190 = load ptr, ptr %5, align 8, !tbaa !22
  %191 = getelementptr inbounds nuw %struct.NLMeansContext, ptr %190, i32 0, i32 21
  %192 = load i32, ptr %191, align 8, !tbaa !79
  %193 = sext i32 %192 to i64
  %194 = load ptr, ptr %3, align 8, !tbaa !48
  %195 = getelementptr inbounds nuw %struct.AVFilterLink, ptr %194, i32 0, i32 7
  %196 = load i32, ptr %195, align 4, !tbaa !62
  %197 = sext i32 %196 to i64
  %198 = mul i64 %197, 4
  %199 = call ptr @av_malloc_array(i64 noundef %193, i64 noundef %198)
  %200 = load ptr, ptr %5, align 8, !tbaa !22
  %201 = getelementptr inbounds nuw %struct.NLMeansContext, ptr %200, i32 0, i32 19
  store ptr %199, ptr %201, align 8, !tbaa !80
  %202 = load ptr, ptr %5, align 8, !tbaa !22
  %203 = getelementptr inbounds nuw %struct.NLMeansContext, ptr %202, i32 0, i32 21
  %204 = load i32, ptr %203, align 8, !tbaa !79
  %205 = sext i32 %204 to i64
  %206 = load ptr, ptr %3, align 8, !tbaa !48
  %207 = getelementptr inbounds nuw %struct.AVFilterLink, ptr %206, i32 0, i32 7
  %208 = load i32, ptr %207, align 4, !tbaa !62
  %209 = sext i32 %208 to i64
  %210 = mul i64 %209, 4
  %211 = call ptr @av_malloc_array(i64 noundef %205, i64 noundef %210)
  %212 = load ptr, ptr %5, align 8, !tbaa !22
  %213 = getelementptr inbounds nuw %struct.NLMeansContext, ptr %212, i32 0, i32 20
  store ptr %211, ptr %213, align 8, !tbaa !81
  %214 = load ptr, ptr %5, align 8, !tbaa !22
  %215 = getelementptr inbounds nuw %struct.NLMeansContext, ptr %214, i32 0, i32 19
  %216 = load ptr, ptr %215, align 8, !tbaa !80
  %217 = icmp ne ptr %216, null
  br i1 %217, label %218, label %223

218:                                              ; preds = %173
  %219 = load ptr, ptr %5, align 8, !tbaa !22
  %220 = getelementptr inbounds nuw %struct.NLMeansContext, ptr %219, i32 0, i32 20
  %221 = load ptr, ptr %220, align 8, !tbaa !81
  %222 = icmp ne ptr %221, null
  br i1 %222, label %224, label %223

223:                                              ; preds = %218, %173
  store i32 -12, ptr %2, align 4
  store i32 1, ptr %8, align 4
  br label %225

224:                                              ; preds = %218
  store i32 0, ptr %2, align 4
  store i32 1, ptr %8, align 4
  br label %225

225:                                              ; preds = %224, %223, %172
  call void @llvm.lifetime.end.p0(i64 4, ptr %7) #10
  call void @llvm.lifetime.end.p0(i64 8, ptr %6) #10
  call void @llvm.lifetime.end.p0(i64 8, ptr %5) #10
  call void @llvm.lifetime.end.p0(i64 8, ptr %4) #10
  %226 = load i32, ptr %2, align 4
  ret i32 %226
}