; Function Attrs: nounwind uwtable
define internal range(i32 -12, 1) i32 @config_input(ptr noundef readonly captures(none) %0) #1 {
  %2 = getelementptr inbounds nuw i8, ptr %0, i64 16
  %3 = load ptr, ptr %2, align 8, !tbaa !46
  %4 = getelementptr inbounds nuw i8, ptr %3, i64 72
  %5 = load ptr, ptr %4, align 8, !tbaa !4
  %6 = getelementptr inbounds nuw i8, ptr %0, i64 36
  %7 = load i32, ptr %6, align 4, !tbaa !85
  %8 = tail call ptr @av_pix_fmt_desc_get(i32 noundef %7) #9
  %9 = getelementptr inbounds nuw i8, ptr %5, i64 60
  %10 = load i32, ptr %9, align 4, !tbaa !38
  %11 = getelementptr inbounds nuw i8, ptr %5, i64 68
  %12 = load i32, ptr %11, align 4, !tbaa !39
  %. = tail call i32 @llvm.smax.i32(i32 %10, i32 %12)
  %13 = getelementptr inbounds nuw i8, ptr %5, i64 44
  %14 = load i32, ptr %13, align 4, !tbaa !40
  %15 = getelementptr inbounds nuw i8, ptr %5, i64 52
  %16 = load i32, ptr %15, align 4, !tbaa !41
  %17 = tail call i32 @llvm.smax.i32(i32 %14, i32 %16)
  %18 = add nsw i32 %17, %.
  %19 = getelementptr inbounds nuw i8, ptr %0, i64 40
  %20 = load i32, ptr %19, align 8, !tbaa !58
  %21 = sub nsw i32 0, %20
  %22 = getelementptr inbounds nuw i8, ptr %8, i64 9
  %23 = load i8, ptr %22, align 1, !tbaa !86
  %24 = zext nneg i8 %23 to i32
  %25 = ashr i32 %21, %24
  %26 = sub nsw i32 0, %25
  %27 = getelementptr inbounds nuw i8, ptr %5, i64 12
  store i32 %26, ptr %27, align 4, !tbaa !88
  %28 = getelementptr inbounds nuw i8, ptr %0, i64 44
  %29 = load i32, ptr %28, align 4, !tbaa !59
  %30 = sub nsw i32 0, %29
  %31 = getelementptr inbounds nuw i8, ptr %8, i64 10
  %32 = load i8, ptr %31, align 2, !tbaa !89
  %33 = zext nneg i8 %32 to i32
  %34 = ashr i32 %30, %33
  %35 = sub nsw i32 0, %34
  %36 = getelementptr inbounds nuw i8, ptr %5, i64 16
  store i32 %35, ptr %36, align 8, !tbaa !90
  %37 = load i32, ptr %6, align 4, !tbaa !85
  %38 = tail call i32 @av_pix_fmt_count_planes(i32 noundef %37) #9
  %39 = getelementptr inbounds nuw i8, ptr %5, i64 8
  store i32 %38, ptr %39, align 8, !tbaa !60
  %40 = getelementptr inbounds nuw i8, ptr %0, i64 40
  %41 = load i32, ptr %40, align 8, !tbaa !58
  %42 = shl nsw i32 %18, 1
  %43 = add nsw i32 %41, %42
  %44 = getelementptr inbounds nuw i8, ptr %5, i64 88
  store i32 %43, ptr %44, align 8, !tbaa !91
  %45 = getelementptr inbounds nuw i8, ptr %0, i64 44
  %46 = load i32, ptr %45, align 4, !tbaa !59
  %47 = add nsw i32 %46, %42
  %48 = getelementptr inbounds nuw i8, ptr %5, i64 92
  store i32 %47, ptr %48, align 4, !tbaa !92
  %49 = and i32 %43, -4
  %50 = add nsw i32 %49, 4
  %51 = sext i32 %50 to i64
  %52 = getelementptr inbounds nuw i8, ptr %5, i64 96
  store i64 %51, ptr %52, align 8, !tbaa !64
  %53 = add nsw i32 %47, 1
  %54 = sext i32 %53 to i64
  %55 = shl nsw i64 %51, 2
  %56 = tail call noalias ptr @av_calloc(i64 noundef %54, i64 noundef %55) #9
  %57 = getelementptr inbounds nuw i8, ptr %5, i64 72
  store ptr %56, ptr %57, align 8, !tbaa !93
  %.not = icmp eq ptr %56, null
  br i1 %.not, label %80, label %58

58:                                               ; preds = %1
  %59 = load i64, ptr %52, align 8, !tbaa !64
  %60 = getelementptr inbounds i32, ptr %56, i64 %59
  %61 = getelementptr inbounds nuw i8, ptr %60, i64 4
  %62 = getelementptr inbounds nuw i8, ptr %5, i64 80
  store ptr %61, ptr %62, align 8, !tbaa !63
  %63 = load i32, ptr %40, align 8, !tbaa !58
  %64 = add nsw i32 %63, 100
  %65 = getelementptr inbounds nuw i8, ptr %5, i64 120
  store i32 %64, ptr %65, align 8, !tbaa !66
  %66 = sext i32 %64 to i64
  %67 = load i32, ptr %45, align 4, !tbaa !59
  %68 = sext i32 %67 to i64
  %69 = shl nsw i64 %68, 2
  %70 = tail call ptr @av_malloc_array(i64 noundef %66, i64 noundef %69) #9
  %71 = getelementptr inbounds nuw i8, ptr %5, i64 104
  store ptr %70, ptr %71, align 8, !tbaa !65
  %72 = load i32, ptr %65, align 8, !tbaa !66
  %73 = sext i32 %72 to i64
  %74 = load i32, ptr %45, align 4, !tbaa !59
  %75 = sext i32 %74 to i64
  %76 = shl nsw i64 %75, 2
  %77 = tail call ptr @av_malloc_array(i64 noundef %73, i64 noundef %76) #9
  %78 = getelementptr inbounds nuw i8, ptr %5, i64 112
  store ptr %77, ptr %78, align 8, !tbaa !67
  %79 = load ptr, ptr %71, align 8, !tbaa !65
  %.not57 = icmp eq ptr %79, null
  %.not58 = icmp eq ptr %77, null
  %or.cond = select i1 %.not57, i1 true, i1 %.not58
  %spec.select = select i1 %or.cond, i32 -12, i32 0
  br label %80

80:                                               ; preds = %58, %1
  %.0 = phi i32 [ -12, %1 ], [ %spec.select, %58 ]
  ret i32 %.0
}